target datalayout = "e-m:e-p270:32:32-p271:32:32-p272:64:64-i64:64-i128:128-f80:128-n8:16:32:64-S128"
target triple = "x86_64-pc-linux-gnu"

%"class.draco::ObjDecoder" = type { i8, i32, i32, i32, i32, i32, i32, i32, i32, i32, i32, i32, i32, i8, i32, %"class.std::__cxx11::basic_string", %"class.std::__cxx11::basic_string", %"class.std::unordered_map", %"class.std::unordered_map", i8, i8, i8, ptr, %"class.draco::DecoderBuffer", ptr, ptr }
%"class.std::__cxx11::basic_string" = type { %"struct.std::__cxx11::basic_string<char>::_Alloc_hider", i64, %union.anon }
%"struct.std::__cxx11::basic_string<char>::_Alloc_hider" = type { ptr }
%union.anon = type { i64, [8 x i8] }
%"class.std::unordered_map" = type { %"class.std::_Hashtable" }
%"class.std::_Hashtable" = type { ptr, i64, %"struct.std::__detail::_Hash_node_base", i64, %"struct.std::__detail::_Prime_rehash_policy", ptr }
%"struct.std::__detail::_Hash_node_base" = type { ptr }
%"struct.std::__detail::_Prime_rehash_policy" = type { float, i64 }
%"class.draco::DecoderBuffer" = type <{ ptr, i64, i64, %"class.draco::DecoderBuffer::BitDecoder", i8, i8, i16, [4 x i8] }>
%"class.draco::DecoderBuffer::BitDecoder" = type { ptr, ptr, i64 }

; Function Attrs: mustprogress nounwind uwtable
define linkonce_odr dso_local noundef zeroext i1 @_ZN5draco13DecoderBuffer4PeekIcEEbPT_(ptr noundef nonnull align 8 dereferenceable(52) %0, ptr noundef %1) #5 comdat align 2 {
  %3 = alloca i1, align 1
  %4 = alloca ptr, align 8
  %5 = alloca ptr, align 8
  %6 = alloca i64, align 8
  %7 = alloca i32, align 4
  store ptr %0, ptr %4, align 8, !tbaa !98
  store ptr %1, ptr %5, align 8, !tbaa !61
  %8 = load ptr, ptr %4, align 8
  call void @llvm.lifetime.start.p0(i64 8, ptr %6) #3
  store i64 1, ptr %6, align 8, !tbaa !106
  %9 = getelementptr inbounds nuw %"class.draco::DecoderBuffer", ptr %8, i32 0, i32 1
  %10 = load i64, ptr %9, align 8, !tbaa !102
  %11 = getelementptr inbounds nuw %"class.draco::DecoderBuffer", ptr %8, i32 0, i32 2
  %12 = load i64, ptr %11, align 8, !tbaa !101
  %13 = add i64 %12, 1
  %14 = icmp slt i64 %10, %13
  br i1 %14, label %15, label %16

15:                                               ; preds = %2
  store i1 false, ptr %3, align 1
  store i32 1, ptr %7, align 4
  br label %23

16:                                               ; preds = %2
  %17 = load ptr, ptr %5, align 8, !tbaa !61
  %18 = getelementptr inbounds nuw %"class.draco::DecoderBuffer", ptr %8, i32 0, i32 0
  %19 = load ptr, ptr %18, align 8, !tbaa !100
  %20 = getelementptr inbounds nuw %"class.draco::DecoderBuffer", ptr %8, i32 0, i32 2
  %21 = load i64, ptr %20, align 8, !tbaa !101
  %22 = getelementptr inbounds i8, ptr %19, i64 %21
  call void @llvm.memcpy.p0.p0.i64(ptr align 1 %17, ptr align 1 %22, i64 1, i1 false)
  store i1 true, ptr %3, align 1
  store i32 1, ptr %7, align 4
  br label %23

23:                                               ; preds = %16, %15
  call void @llvm.lifetime.end.p0(i64 8, ptr %6) #3
  %24 = load i1, ptr %3, align 1
  ret i1 %24
}

; Function Attrs: mustprogress nounwind uwtable
define linkonce_odr dso_local noundef ptr @_ZN5draco10ObjDecoder6bufferEv(ptr noundef nonnull align 8 dereferenceable(328) %0) #5 comdat align 2 {
  %2 = alloca ptr, align 8
  store ptr %0, ptr %2, align 8, !tbaa !4
  %3 = load ptr, ptr %2, align 8
  %4 = getelementptr inbounds nuw %"class.draco::ObjDecoder", ptr %3, i32 0, i32 23
  ret ptr %4
}

; Function Attrs: mustprogress uwtable
define dso_local noundef zeroext i1 @_ZN5draco10ObjDecoder15ParseDefinitionEPNS_6StatusE(ptr noundef nonnull align 8 dereferenceable(328) %0, ptr noundef %1) #4 align 2 {
  %3 = alloca i1, align 1
  %4 = alloca ptr, align 8
  %5 = alloca ptr, align 8
  %6 = alloca i8, align 1
  %7 = alloca i32, align 4
  store ptr %0, ptr %4, align 8, !tbaa !4
  store ptr %1, ptr %5, align 8, !tbaa !62
  %8 = load ptr, ptr %4, align 8
  call void @llvm.lifetime.start.p0(i64 1, ptr %6) #3
  %9 = call noundef ptr @_ZN5draco10ObjDecoder6bufferEv(ptr noundef nonnull align 8 dereferenceable(328) %8)
  call void @_ZN5draco6parser14SkipWhitespaceEPNS_13DecoderBufferE(ptr noundef %9)
  %10 = call noundef ptr @_ZN5draco10ObjDecoder6bufferEv(ptr noundef nonnull align 8 dereferenceable(328) %8)
  %11 = call noundef zeroext i1 @_ZN5draco13DecoderBuffer4PeekIcEEbPT_(ptr noundef nonnull align 8 dereferenceable(52) %10, ptr noundef %6)
  br i1 %11, label %13, label %12

12:                                               ; preds = %2
  store i1 false, ptr %3, align 1
  store i32 1, ptr %7, align 4
  br label %49

13:                                               ; preds = %2
  %14 = load i8, ptr %6, align 1, !tbaa !84
  %15 = sext i8 %14 to i32
  %16 = icmp eq i32 %15, 35
  br i1 %16, label %17, label %19

17:                                               ; preds = %13
  %18 = call noundef ptr @_ZN5draco10ObjDecoder6bufferEv(ptr noundef nonnull align 8 dereferenceable(328) %8)
  call void @_ZN5draco6parser8SkipLineEPNS_13DecoderBufferE(ptr noundef %18)
  store i1 true, ptr %3, align 1
  store i32 1, ptr %7, align 4
  br label %49

19:                                               ; preds = %13
  %20 = load ptr, ptr %5, align 8, !tbaa !62
  %21 = call noundef zeroext i1 @_ZN5draco10ObjDecoder19ParseVertexPositionEPNS_6StatusE(ptr noundef nonnull align 8 dereferenceable(328) %8, ptr noundef %20)
  br i1 %21, label %22, label %23

22:                                               ; preds = %19
  store i1 true, ptr %3, align 1
  store i32 1, ptr %7, align 4
  br label %49

23:                                               ; preds = %19
  %24 = load ptr, ptr %5, align 8, !tbaa !62
  %25 = call noundef zeroext i1 @_ZN5draco10ObjDecoder11ParseNormalEPNS_6StatusE(ptr noundef nonnull align 8 dereferenceable(328) %8, ptr noundef %24)
  br i1 %25, label %26, label %27

26:                                               ; preds = %23
  store i1 true, ptr %3, align 1
  store i32 1, ptr %7, align 4
  br label %49

27:                                               ; preds = %23
  %28 = load ptr, ptr %5, align 8, !tbaa !62
  %29 = call noundef zeroext i1 @_ZN5draco10ObjDecoder13ParseTexCoordEPNS_6StatusE(ptr noundef nonnull align 8 dereferenceable(328) %8, ptr noundef %28)
  br i1 %29, label %30, label %31

30:                                               ; preds = %27
  store i1 true, ptr %3, align 1
  store i32 1, ptr %7, align 4
  br label %49

31:                                               ; preds = %27
  %32 = load ptr, ptr %5, align 8, !tbaa !62
  %33 = call noundef zeroext i1 @_ZN5draco10ObjDecoder9ParseFaceEPNS_6StatusE(ptr noundef nonnull align 8 dereferenceable(328) %8, ptr noundef %32)
  br i1 %33, label %34, label %35

34:                                               ; preds = %31
  store i1 true, ptr %3, align 1
  store i32 1, ptr %7, align 4
  br label %49

35:                                               ; preds = %31
  %36 = load ptr, ptr %5, align 8, !tbaa !62
  %37 = call noundef zeroext i1 @_ZN5draco10ObjDecoder13ParseMaterialEPNS_6StatusE(ptr noundef nonnull align 8 dereferenceable(328) %8, ptr noundef %36)
  br i1 %37, label %38, label %39

38:                                               ; preds = %35
  store i1 true, ptr %3, align 1
  store i32 1, ptr %7, align 4
  br label %49

39:                                               ; preds = %35
  %40 = load ptr, ptr %5, align 8, !tbaa !62
  %41 = call noundef zeroext i1 @_ZN5draco10ObjDecoder16ParseMaterialLibEPNS_6StatusE(ptr noundef nonnull align 8 dereferenceable(328) %8, ptr noundef %40)
  br i1 %41, label %42, label %43

42:                                               ; preds = %39
  store i1 true, ptr %3, align 1
  store i32 1, ptr %7, align 4
  br label %49

43:                                               ; preds = %39
  %44 = load ptr, ptr %5, align 8, !tbaa !62
  %45 = call noundef zeroext i1 @_ZN5draco10ObjDecoder11ParseObjectEPNS_6StatusE(ptr noundef nonnull align 8 dereferenceable(328) %8, ptr noundef %44)
  br i1 %45, label %46, label %47

46:                                               ; preds = %43
  store i1 true, ptr %3, align 1
  store i32 1, ptr %7, align 4
  br label %49

47:                                               ; preds = %43
  %48 = call noundef ptr @_ZN5draco10ObjDecoder6bufferEv(ptr noundef nonnull align 8 dereferenceable(328) %8)
  call void @_ZN5draco6parser8SkipLineEPNS_13DecoderBufferE(ptr noundef %48)
  store i1 true, ptr %3, align 1
  store i32 1, ptr %7, align 4
  br label %49

49:                                               ; preds = %47, %46, %42, %38, %34, %30, %26, %22, %17, %12
  call void @llvm.lifetime.end.p0(i64 1, ptr %6) #3
  %50 = load i1, ptr %3, align 1
  ret i1 %50
}