; Function Attrs: mustprogress uwtable
define dso_local noundef zeroext i1 @_ZN5draco10ObjDecoder15ParseDefinitionEPNS_6StatusE(ptr noundef nonnull align 8 dereferenceable(328) %0, ptr noundef %1) local_unnamed_addr #3 align 2 {
  %3 = getelementptr inbounds nuw i8, ptr %0, i64 256
  tail call void @_ZN5draco6parser14SkipWhitespaceEPNS_13DecoderBufferE(ptr noundef nonnull %3)
  %4 = getelementptr inbounds nuw i8, ptr %0, i64 264
  %5 = load i64, ptr %4, align 8, !tbaa !149
  %6 = getelementptr inbounds nuw i8, ptr %0, i64 272
  %7 = load i64, ptr %6, align 8, !tbaa !136
  %8 = add i64 %7, 1
  %9 = icmp sge i64 %5, %8
  br i1 %9, label %10, label %_ZN5draco13DecoderBuffer4PeekIcEEbPT_.exit

10:                                               ; preds = %2
  %11 = load ptr, ptr %3, align 8, !tbaa !148
  %12 = getelementptr inbounds i8, ptr %11, i64 %7
  %13 = load i8, ptr %12, align 1
  %14 = icmp eq i8 %13, 35
  br i1 %14, label %_ZN5draco13DecoderBuffer4PeekIcEEbPT_.exit.sink.split, label %15

15:                                               ; preds = %10
  %16 = tail call noundef zeroext i1 @_ZN5draco10ObjDecoder19ParseVertexPositionEPNS_6StatusE(ptr noundef nonnull align 8 dereferenceable(328) %0, ptr noundef %1)
  br i1 %16, label %_ZN5draco13DecoderBuffer4PeekIcEEbPT_.exit, label %17

17:                                               ; preds = %15
  %18 = tail call noundef zeroext i1 @_ZN5draco10ObjDecoder11ParseNormalEPNS_6StatusE(ptr noundef nonnull align 8 dereferenceable(328) %0, ptr noundef %1)
  br i1 %18, label %_ZN5draco13DecoderBuffer4PeekIcEEbPT_.exit, label %19

19:                                               ; preds = %17
  %20 = tail call noundef zeroext i1 @_ZN5draco10ObjDecoder13ParseTexCoordEPNS_6StatusE(ptr noundef nonnull align 8 dereferenceable(328) %0, ptr noundef %1)
  br i1 %20, label %_ZN5draco13DecoderBuffer4PeekIcEEbPT_.exit, label %21

21:                                               ; preds = %19
  %22 = tail call noundef zeroext i1 @_ZN5draco10ObjDecoder9ParseFaceEPNS_6StatusE(ptr noundef nonnull align 8 dereferenceable(328) %0, ptr noundef %1)
  br i1 %22, label %_ZN5draco13DecoderBuffer4PeekIcEEbPT_.exit, label %23

23:                                               ; preds = %21
  %24 = tail call noundef zeroext i1 @_ZN5draco10ObjDecoder13ParseMaterialEPNS_6StatusE(ptr noundef nonnull align 8 dereferenceable(328) %0, ptr poison)
  br i1 %24, label %_ZN5draco13DecoderBuffer4PeekIcEEbPT_.exit, label %25

25:                                               ; preds = %23
  %26 = tail call noundef zeroext i1 @_ZN5draco10ObjDecoder16ParseMaterialLibEPNS_6StatusE(ptr noundef nonnull align 8 dereferenceable(328) %0, ptr noundef %1)
  br i1 %26, label %_ZN5draco13DecoderBuffer4PeekIcEEbPT_.exit, label %27

27:                                               ; preds = %25
  %28 = tail call noundef zeroext i1 @_ZN5draco10ObjDecoder11ParseObjectEPNS_6StatusE(ptr noundef nonnull align 8 dereferenceable(328) %0, ptr poison)
  br i1 %28, label %_ZN5draco13DecoderBuffer4PeekIcEEbPT_.exit, label %_ZN5draco13DecoderBuffer4PeekIcEEbPT_.exit.sink.split

_ZN5draco13DecoderBuffer4PeekIcEEbPT_.exit.sink.split: ; preds = %27, %10
  tail call void @_ZN5draco6parser8SkipLineEPNS_13DecoderBufferE(ptr noundef nonnull %3)
  br label %_ZN5draco13DecoderBuffer4PeekIcEEbPT_.exit

_ZN5draco13DecoderBuffer4PeekIcEEbPT_.exit:       ; preds = %_ZN5draco13DecoderBuffer4PeekIcEEbPT_.exit.sink.split, %2, %27, %25, %23, %21, %19, %17, %15
  ret i1 %9
}